; Function Attrs: nounwind uwtable
define range(i32 -1, 1) i32 @H5HL_get_size(ptr noundef %0, i64 noundef %1, ptr noundef writeonly captures(none) %2) local_unnamed_addr #0 {
  %4 = alloca %struct.H5HL_cache_prfx_ud_t, align 8
  call void @llvm.lifetime.start.p0(i64 32, ptr nonnull %4) #7
  %5 = load i8, ptr @H5HL_init_g, align 1, !tbaa !3, !range !7, !noundef !8
  %6 = trunc nuw i8 %5 to i1
  %7 = load i8, ptr @H5_libterm_g, align 1, !range !7
  %8 = trunc nuw i8 %7 to i1
  %9 = select i1 %6, i1 true, i1 %8
  br i1 %9, label %10, label %.thread, !prof !9

.thread:                                          ; preds = %3
  store i8 1, ptr @H5HL_init_g, align 1, !tbaa !3
  br label %13

10:                                               ; preds = %3
  %11 = xor i1 %8, true
  %12 = select i1 %6, i1 true, i1 %11
  br i1 %12, label %13, label %49, !prof !10

13:                                               ; preds = %.thread, %10
  %14 = tail call zeroext i8 @H5F_sizeof_size(ptr noundef %0) #7
  %15 = zext i8 %14 to i64
  store i64 %15, ptr %4, align 8, !tbaa !30
  %16 = tail call zeroext i8 @H5F_sizeof_addr(ptr noundef %0) #7
  %17 = zext i8 %16 to i64
  %18 = getelementptr inbounds nuw i8, ptr %4, i64 8
  store i64 %17, ptr %18, align 8, !tbaa !32
  %19 = getelementptr inbounds nuw i8, ptr %4, i64 16
  store i64 %1, ptr %19, align 8, !tbaa !33
  %20 = tail call zeroext i8 @H5F_sizeof_size(ptr noundef %0) #7
  %21 = zext i8 %20 to i64
  %22 = tail call zeroext i8 @H5F_sizeof_size(ptr noundef %0) #7
  %23 = zext i8 %22 to i64
  %24 = tail call zeroext i8 @H5F_sizeof_addr(ptr noundef %0) #7
  %25 = zext i8 %24 to i64
  %26 = add nuw nsw i64 %21, 15
  %27 = add nuw nsw i64 %26, %23
  %28 = add nuw nsw i64 %27, %25
  %29 = and i64 %28, 2040
  %30 = getelementptr inbounds nuw i8, ptr %4, i64 24
  store i64 %29, ptr %30, align 8, !tbaa !34
  %31 = call ptr @H5AC_protect(ptr noundef %0, ptr noundef nonnull @H5AC_LHEAP_PRFX, i64 noundef %1, ptr noundef nonnull %4, i32 noundef 128) #7
  %32 = icmp eq ptr %31, null
  br i1 %32, label %.thread20, label %36

.thread20:                                        ; preds = %13
  %33 = load i64, ptr @H5E_HEAP_g, align 8, !tbaa !20
  %34 = load i64, ptr @H5E_CANTPROTECT_g, align 8, !tbaa !20
  %35 = call i32 (ptr, ptr, i32, i64, i64, ptr, ...) @H5E_printf_stack(ptr noundef nonnull @.str.2, ptr noundef nonnull @__func__.H5HL_get_size, i32 noundef 951, i64 noundef %33, i64 noundef %34, ptr noundef nonnull @.str.10) #7
  br label %49

36:                                               ; preds = %13
  %37 = getelementptr inbounds nuw i8, ptr %31, i64 248
  %38 = load ptr, ptr %37, align 8, !tbaa !35
  %39 = getelementptr inbounds nuw i8, ptr %38, i64 96
  %40 = load i64, ptr %39, align 8, !tbaa !23
  store i64 %40, ptr %2, align 8, !tbaa !20
  %41 = getelementptr inbounds nuw i8, ptr %38, i64 56
  %42 = load i64, ptr %41, align 8, !tbaa !19
  %43 = call i32 @H5AC_unprotect(ptr noundef %0, ptr noundef nonnull @H5AC_LHEAP_PRFX, i64 noundef %42, ptr noundef nonnull %31, i32 noundef 0) #7
  %44 = icmp eq i32 %43, -1
  br i1 %44, label %45, label %49

45:                                               ; preds = %36
  %46 = load i64, ptr @H5E_HEAP_g, align 8, !tbaa !20
  %47 = load i64, ptr @H5E_CANTUNPROTECT_g, align 8, !tbaa !20
  %48 = call i32 (ptr, ptr, i32, i64, i64, ptr, ...) @H5E_printf_stack(ptr noundef nonnull @.str.2, ptr noundef nonnull @__func__.H5HL_get_size, i32 noundef 961, i64 noundef %46, i64 noundef %47, ptr noundef nonnull @.str.13) #7
  br label %49

49:                                               ; preds = %.thread20, %36, %45, %10
  %.0 = phi i32 [ -1, %45 ], [ 0, %36 ], [ 0, %10 ], [ -1, %.thread20 ]
  call void @llvm.lifetime.end.p0(i64 32, ptr nonnull %4) #7
  ret i32 %.0
}